target datalayout = "e-m:e-p270:32:32-p271:32:32-p272:64:64-i64:64-i128:128-f80:128-n8:16:32:64-S128"
target triple = "x86_64-pc-linux-gnu"

%struct.H5C_class_t = type { i32, ptr, i32, i32, ptr, ptr, ptr, ptr, ptr, ptr, ptr, ptr, ptr, ptr }
%struct.H5HG_heap_t = type { %struct.H5C_cache_entry_t, i64, i64, ptr, i64, i64, ptr, ptr }
%struct.H5C_cache_entry_t = type { ptr, i64, i64, ptr, i8, ptr, i8, i8, i8, i8, i32, i8, i8, i8, i8, i8, i32, ptr, i32, i32, i32, i32, i32, i8, i8, ptr, ptr, ptr, ptr, ptr, ptr, i8, i32, i8, i64, ptr, i64, i64, i32, i8, i32, i32, i8, ptr, ptr, ptr }
%struct.H5HG_obj_t = type { i32, i64, ptr }
%struct.H5HG_t = type { i64, i64 }

@H5HG_init_g = global i8 0, align 1
@H5_libterm_g = external global i8, align 1
@H5AC_GHEAP = external constant [1 x %struct.H5C_class_t], align 16
@.str.3 = private unnamed_addr constant [98 x i8] c"generated/home/dtcxzyw/WorkSpace/Projects/compilers/llvm-opt-benchmark/bench/hdf5/hdf5/src/H5HG.c\00", align 1
@__func__.H5HG__protect = private unnamed_addr constant [14 x i8] c"H5HG__protect\00", align 1
@H5E_HEAP_g = external global i64, align 8
@H5E_CANTPROTECT_g = external global i64, align 8
@.str.4 = private unnamed_addr constant [30 x i8] c"unable to protect global heap\00", align 1
@H5E_CANTUNPROTECT_g = external global i64, align 8
@H5E_BADVALUE_g = external global i64, align 8
@.str.13 = private unnamed_addr constant [41 x i8] c"bad heap index, heap object = {%lx, %zu}\00", align 1
@.str.14 = private unnamed_addr constant [43 x i8] c"bad heap pointer, heap object = {%lx, %zu}\00", align 1
@.str.17 = private unnamed_addr constant [32 x i8] c"unable to release object header\00", align 1
@__func__.H5HG_get_obj_size = private unnamed_addr constant [18 x i8] c"H5HG_get_obj_size\00", align 1

; Function Attrs: nounwind uwtable
define ptr @H5HG__protect(ptr noundef %0, i64 noundef %1, i32 noundef %2) #0 {
  %4 = alloca ptr, align 8
  %5 = alloca i64, align 8
  %6 = alloca i32, align 4
  %7 = alloca ptr, align 8
  %8 = alloca ptr, align 8
  %9 = alloca i8, align 1
  store ptr %0, ptr %4, align 8, !tbaa !3
  store i64 %1, ptr %5, align 8, !tbaa !8
  store i32 %2, ptr %6, align 4, !tbaa !10
  call void @llvm.lifetime.start.p0(i64 8, ptr %7) #8
  call void @llvm.lifetime.start.p0(i64 8, ptr %8) #8
  store ptr null, ptr %8, align 8, !tbaa !12
  call void @llvm.lifetime.start.p0(i64 1, ptr %9) #8
  store i8 0, ptr %9, align 1, !tbaa !14
  %10 = load i8, ptr @H5HG_init_g, align 1, !tbaa !14, !range !16, !noundef !17
  %11 = trunc i8 %10 to i1
  br i1 %11, label %16, label %12

12:                                               ; preds = %3
  %13 = load i8, ptr @H5_libterm_g, align 1, !tbaa !14, !range !16, !noundef !17
  %14 = trunc i8 %13 to i1
  %15 = xor i1 %14, true
  br label %16

16:                                               ; preds = %12, %3
  %17 = phi i1 [ true, %3 ], [ %15, %12 ]
  %18 = xor i1 %17, true
  %19 = xor i1 %18, true
  %20 = zext i1 %19 to i32
  %21 = sext i32 %20 to i64
  %22 = call i64 @llvm.expect.i64(i64 %21, i64 1)
  %23 = icmp ne i64 %22, 0
  br i1 %23, label %24, label %56

24:                                               ; preds = %16
  %25 = load ptr, ptr %4, align 8, !tbaa !3
  %26 = load i64, ptr %5, align 8, !tbaa !8
  %27 = load ptr, ptr %4, align 8, !tbaa !3
  %28 = load i32, ptr %6, align 4, !tbaa !10
  %29 = call ptr @H5AC_protect(ptr noundef %25, ptr noundef @H5AC_GHEAP, i64 noundef %26, ptr noundef %27, i32 noundef %28)
  store ptr %29, ptr %7, align 8, !tbaa !12
  %30 = icmp eq ptr null, %29
  br i1 %30, label %31, label %50

31:                                               ; preds = %24
  br label %32

32:                                               ; preds = %31
  br label %33

33:                                               ; preds = %32
  br label %34

34:                                               ; preds = %33
  %35 = load i64, ptr @H5E_HEAP_g, align 8, !tbaa !8
  %36 = load i64, ptr @H5E_CANTPROTECT_g, align 8, !tbaa !8
  %37 = call i32 (ptr, ptr, i32, i64, i64, ptr, ...) @H5E_printf_stack(ptr noundef @.str.3, ptr noundef @__func__.H5HG__protect, i32 noundef 239, i64 noundef %35, i64 noundef %36, ptr noundef @.str.4)
  br label %38

38:                                               ; preds = %34
  br label %39

39:                                               ; preds = %38
  store i8 1, ptr %9, align 1, !tbaa !14
  %40 = load i8, ptr %9, align 1, !tbaa !14, !range !16, !noundef !17
  %41 = trunc i8 %40 to i1
  %42 = zext i1 %41 to i8
  store i8 %42, ptr %9, align 1, !tbaa !14
  br label %43

43:                                               ; preds = %39
  br label %44

44:                                               ; preds = %43
  br label %45

45:                                               ; preds = %44
  store ptr null, ptr %8, align 8, !tbaa !12
  br label %55

46:                                               ; No predecessors!
  br label %47

47:                                               ; preds = %46
  br label %48

48:                                               ; preds = %47
  br label %49

49:                                               ; preds = %48
  br label %50

50:                                               ; preds = %49, %24
  %51 = load i64, ptr %5, align 8, !tbaa !8
  %52 = load ptr, ptr %7, align 8, !tbaa !12
  %53 = getelementptr inbounds nuw %struct.H5HG_heap_t, ptr %52, i32 0, i32 1
  store i64 %51, ptr %53, align 8, !tbaa !18
  %54 = load ptr, ptr %7, align 8, !tbaa !12
  store ptr %54, ptr %8, align 8, !tbaa !12
  br label %55

55:                                               ; preds = %50, %45
  br label %56

56:                                               ; preds = %55, %16
  %57 = load ptr, ptr %8, align 8, !tbaa !12
  call void @llvm.lifetime.end.p0(i64 1, ptr %9) #8
  call void @llvm.lifetime.end.p0(i64 8, ptr %8) #8
  call void @llvm.lifetime.end.p0(i64 8, ptr %7) #8
  ret ptr %57
}

; Function Attrs: nounwind uwtable
define i32 @H5HG_get_obj_size(ptr noundef %0, ptr noundef %1, ptr noundef %2) #0 {
  %4 = alloca ptr, align 8
  %5 = alloca ptr, align 8
  %6 = alloca ptr, align 8
  %7 = alloca ptr, align 8
  %8 = alloca i32, align 4
  %9 = alloca i64, align 8
  %10 = alloca i8, align 1
  store ptr %0, ptr %4, align 8, !tbaa !3
  store ptr %1, ptr %5, align 8, !tbaa !46
  store ptr %2, ptr %6, align 8, !tbaa !66
  call void @llvm.lifetime.start.p0(i64 8, ptr %7) #8
  store ptr null, ptr %7, align 8, !tbaa !12
  call void @llvm.lifetime.start.p0(i64 4, ptr %8) #8
  store i32 0, ptr %8, align 4, !tbaa !10
  call void @llvm.lifetime.start.p0(i64 8, ptr %9) #8
  store i64 -1, ptr %9, align 8, !tbaa !8
  call void @llvm.lifetime.start.p0(i64 1, ptr %10) #8
  store i8 0, ptr %10, align 1, !tbaa !14
  call void @H5AC_tag(i64 noundef 6, ptr noundef %9)
  %11 = load i8, ptr @H5HG_init_g, align 1, !tbaa !14, !range !16, !noundef !17
  %12 = trunc i8 %11 to i1
  br i1 %12, label %17, label %13

13:                                               ; preds = %3
  %14 = load i8, ptr @H5_libterm_g, align 1, !tbaa !14, !range !16, !noundef !17
  %15 = trunc i8 %14 to i1
  %16 = xor i1 %15, true
  br label %17

17:                                               ; preds = %13, %3
  %18 = phi i1 [ false, %3 ], [ %16, %13 ]
  %19 = xor i1 %18, true
  %20 = xor i1 %19, true
  %21 = zext i1 %20 to i32
  %22 = sext i32 %21 to i64
  %23 = call i64 @llvm.expect.i64(i64 %22, i64 0)
  %24 = icmp ne i64 %23, 0
  br i1 %24, label %25, label %26

25:                                               ; preds = %17
  store i8 1, ptr @H5HG_init_g, align 1, !tbaa !14
  br label %26

26:                                               ; preds = %25, %17
  %27 = load i8, ptr @H5HG_init_g, align 1, !tbaa !14, !range !16, !noundef !17
  %28 = trunc i8 %27 to i1
  br i1 %28, label %33, label %29

29:                                               ; preds = %26
  %30 = load i8, ptr @H5_libterm_g, align 1, !tbaa !14, !range !16, !noundef !17
  %31 = trunc i8 %30 to i1
  %32 = xor i1 %31, true
  br label %33

33:                                               ; preds = %29, %26
  %34 = phi i1 [ true, %26 ], [ %32, %29 ]
  %35 = xor i1 %34, true
  %36 = xor i1 %35, true
  %37 = zext i1 %36 to i32
  %38 = sext i32 %37 to i64
  %39 = call i64 @llvm.expect.i64(i64 %38, i64 1)
  %40 = icmp ne i64 %39, 0
  br i1 %40, label %41, label %205

41:                                               ; preds = %33
  %42 = load ptr, ptr %5, align 8, !tbaa !46
  %43 = getelementptr inbounds nuw %struct.H5HG_t, ptr %42, i32 0, i32 1
  %44 = load i64, ptr %43, align 8, !tbaa !50
  %45 = icmp eq i64 0, %44
  br i1 %45, label %46, label %71

46:                                               ; preds = %41
  br label %47

47:                                               ; preds = %46
  br label %48

48:                                               ; preds = %47
  br label %49

49:                                               ; preds = %48
  %50 = load i64, ptr @H5E_HEAP_g, align 8, !tbaa !8
  %51 = load i64, ptr @H5E_BADVALUE_g, align 8, !tbaa !8
  %52 = load ptr, ptr %5, align 8, !tbaa !46
  %53 = getelementptr inbounds nuw %struct.H5HG_t, ptr %52, i32 0, i32 0
  %54 = load i64, ptr %53, align 8, !tbaa !48
  %55 = load ptr, ptr %5, align 8, !tbaa !46
  %56 = getelementptr inbounds nuw %struct.H5HG_t, ptr %55, i32 0, i32 1
  %57 = load i64, ptr %56, align 8, !tbaa !50
  %58 = call i32 (ptr, ptr, i32, i64, i64, ptr, ...) @H5E_printf_stack(ptr noundef @.str.3, ptr noundef @__func__.H5HG_get_obj_size, i32 noundef 701, i64 noundef %50, i64 noundef %51, ptr noundef @.str.13, i64 noundef %54, i64 noundef %57)
  br label %59

59:                                               ; preds = %49
  br label %60

60:                                               ; preds = %59
  store i8 1, ptr %10, align 1, !tbaa !14
  %61 = load i8, ptr %10, align 1, !tbaa !14, !range !16, !noundef !17
  %62 = trunc i8 %61 to i1
  %63 = zext i1 %62 to i8
  store i8 %63, ptr %10, align 1, !tbaa !14
  br label %64

64:                                               ; preds = %60
  br label %65

65:                                               ; preds = %64
  br label %66

66:                                               ; preds = %65
  store i32 -1, ptr %8, align 4, !tbaa !10
  br label %177

67:                                               ; No predecessors!
  br label %68

68:                                               ; preds = %67
  br label %69

69:                                               ; preds = %68
  br label %70

70:                                               ; preds = %69
  br label %71

71:                                               ; preds = %70, %41
  %72 = load ptr, ptr %4, align 8, !tbaa !3
  %73 = load ptr, ptr %5, align 8, !tbaa !46
  %74 = getelementptr inbounds nuw %struct.H5HG_t, ptr %73, i32 0, i32 0
  %75 = load i64, ptr %74, align 8, !tbaa !48
  %76 = call ptr @H5HG__protect(ptr noundef %72, i64 noundef %75, i32 noundef 128)
  store ptr %76, ptr %7, align 8, !tbaa !12
  %77 = icmp eq ptr null, %76
  br i1 %77, label %78, label %97

78:                                               ; preds = %71
  br label %79

79:                                               ; preds = %78
  br label %80

80:                                               ; preds = %79
  br label %81

81:                                               ; preds = %80
  %82 = load i64, ptr @H5E_HEAP_g, align 8, !tbaa !8
  %83 = load i64, ptr @H5E_CANTPROTECT_g, align 8, !tbaa !8
  %84 = call i32 (ptr, ptr, i32, i64, i64, ptr, ...) @H5E_printf_stack(ptr noundef @.str.3, ptr noundef @__func__.H5HG_get_obj_size, i32 noundef 705, i64 noundef %82, i64 noundef %83, ptr noundef @.str.4)
  br label %85

85:                                               ; preds = %81
  br label %86

86:                                               ; preds = %85
  store i8 1, ptr %10, align 1, !tbaa !14
  %87 = load i8, ptr %10, align 1, !tbaa !14, !range !16, !noundef !17
  %88 = trunc i8 %87 to i1
  %89 = zext i1 %88 to i8
  store i8 %89, ptr %10, align 1, !tbaa !14
  br label %90

90:                                               ; preds = %86
  br label %91

91:                                               ; preds = %90
  br label %92

92:                                               ; preds = %91
  store i32 -1, ptr %8, align 4, !tbaa !10
  br label %177

93:                                               ; No predecessors!
  br label %94

94:                                               ; preds = %93
  br label %95

95:                                               ; preds = %94
  br label %96

96:                                               ; preds = %95
  br label %97

97:                                               ; preds = %96, %71
  %98 = load ptr, ptr %5, align 8, !tbaa !46
  %99 = getelementptr inbounds nuw %struct.H5HG_t, ptr %98, i32 0, i32 1
  %100 = load i64, ptr %99, align 8, !tbaa !50
  %101 = load ptr, ptr %7, align 8, !tbaa !12
  %102 = getelementptr inbounds nuw %struct.H5HG_heap_t, ptr %101, i32 0, i32 5
  %103 = load i64, ptr %102, align 8, !tbaa !37
  %104 = icmp uge i64 %100, %103
  br i1 %104, label %105, label %130

105:                                              ; preds = %97
  br label %106

106:                                              ; preds = %105
  br label %107

107:                                              ; preds = %106
  br label %108

108:                                              ; preds = %107
  %109 = load i64, ptr @H5E_HEAP_g, align 8, !tbaa !8
  %110 = load i64, ptr @H5E_BADVALUE_g, align 8, !tbaa !8
  %111 = load ptr, ptr %5, align 8, !tbaa !46
  %112 = getelementptr inbounds nuw %struct.H5HG_t, ptr %111, i32 0, i32 0
  %113 = load i64, ptr %112, align 8, !tbaa !48
  %114 = load ptr, ptr %5, align 8, !tbaa !46
  %115 = getelementptr inbounds nuw %struct.H5HG_t, ptr %114, i32 0, i32 1
  %116 = load i64, ptr %115, align 8, !tbaa !50
  %117 = call i32 (ptr, ptr, i32, i64, i64, ptr, ...) @H5E_printf_stack(ptr noundef @.str.3, ptr noundef @__func__.H5HG_get_obj_size, i32 noundef 710, i64 noundef %109, i64 noundef %110, ptr noundef @.str.13, i64 noundef %113, i64 noundef %116)
  br label %118

118:                                              ; preds = %108
  br label %119

119:                                              ; preds = %118
  store i8 1, ptr %10, align 1, !tbaa !14
  %120 = load i8, ptr %10, align 1, !tbaa !14, !range !16, !noundef !17
  %121 = trunc i8 %120 to i1
  %122 = zext i1 %121 to i8
  store i8 %122, ptr %10, align 1, !tbaa !14
  br label %123

123:                                              ; preds = %119
  br label %124

124:                                              ; preds = %123
  br label %125

125:                                              ; preds = %124
  store i32 -1, ptr %8, align 4, !tbaa !10
  br label %177

126:                                              ; No predecessors!
  br label %127

127:                                              ; preds = %126
  br label %128

128:                                              ; preds = %127
  br label %129

129:                                              ; preds = %128
  br label %130

130:                                              ; preds = %129, %97
  %131 = load ptr, ptr %7, align 8, !tbaa !12
  %132 = getelementptr inbounds nuw %struct.H5HG_heap_t, ptr %131, i32 0, i32 7
  %133 = load ptr, ptr %132, align 8, !tbaa !38
  %134 = load ptr, ptr %5, align 8, !tbaa !46
  %135 = getelementptr inbounds nuw %struct.H5HG_t, ptr %134, i32 0, i32 1
  %136 = load i64, ptr %135, align 8, !tbaa !50
  %137 = getelementptr inbounds nuw %struct.H5HG_obj_t, ptr %133, i64 %136
  %138 = getelementptr inbounds nuw %struct.H5HG_obj_t, ptr %137, i32 0, i32 2
  %139 = load ptr, ptr %138, align 8, !tbaa !39
  %140 = icmp eq ptr null, %139
  br i1 %140, label %141, label %166

141:                                              ; preds = %130
  br label %142

142:                                              ; preds = %141
  br label %143

143:                                              ; preds = %142
  br label %144

144:                                              ; preds = %143
  %145 = load i64, ptr @H5E_HEAP_g, align 8, !tbaa !8
  %146 = load i64, ptr @H5E_BADVALUE_g, align 8, !tbaa !8
  %147 = load ptr, ptr %5, align 8, !tbaa !46
  %148 = getelementptr inbounds nuw %struct.H5HG_t, ptr %147, i32 0, i32 0
  %149 = load i64, ptr %148, align 8, !tbaa !48
  %150 = load ptr, ptr %5, align 8, !tbaa !46
  %151 = getelementptr inbounds nuw %struct.H5HG_t, ptr %150, i32 0, i32 1
  %152 = load i64, ptr %151, align 8, !tbaa !50
  %153 = call i32 (ptr, ptr, i32, i64, i64, ptr, ...) @H5E_printf_stack(ptr noundef @.str.3, ptr noundef @__func__.H5HG_get_obj_size, i32 noundef 713, i64 noundef %145, i64 noundef %146, ptr noundef @.str.14, i64 noundef %149, i64 noundef %152)
  br label %154

154:                                              ; preds = %144
  br label %155

155:                                              ; preds = %154
  store i8 1, ptr %10, align 1, !tbaa !14
  %156 = load i8, ptr %10, align 1, !tbaa !14, !range !16, !noundef !17
  %157 = trunc i8 %156 to i1
  %158 = zext i1 %157 to i8
  store i8 %158, ptr %10, align 1, !tbaa !14
  br label %159

159:                                              ; preds = %155
  br label %160

160:                                              ; preds = %159
  br label %161

161:                                              ; preds = %160
  store i32 -1, ptr %8, align 4, !tbaa !10
  br label %177

162:                                              ; No predecessors!
  br label %163

163:                                              ; preds = %162
  br label %164

164:                                              ; preds = %163
  br label %165

165:                                              ; preds = %164
  br label %166

166:                                              ; preds = %165, %130
  %167 = load ptr, ptr %7, align 8, !tbaa !12
  %168 = getelementptr inbounds nuw %struct.H5HG_heap_t, ptr %167, i32 0, i32 7
  %169 = load ptr, ptr %168, align 8, !tbaa !38
  %170 = load ptr, ptr %5, align 8, !tbaa !46
  %171 = getelementptr inbounds nuw %struct.H5HG_t, ptr %170, i32 0, i32 1
  %172 = load i64, ptr %171, align 8, !tbaa !50
  %173 = getelementptr inbounds nuw %struct.H5HG_obj_t, ptr %169, i64 %172
  %174 = getelementptr inbounds nuw %struct.H5HG_obj_t, ptr %173, i32 0, i32 1
  %175 = load i64, ptr %174, align 8, !tbaa !42
  %176 = load ptr, ptr %6, align 8, !tbaa !66
  store i64 %175, ptr %176, align 8, !tbaa !8
  br label %177

177:                                              ; preds = %166, %161, %125, %92, %66
  %178 = load ptr, ptr %7, align 8, !tbaa !12
  %179 = icmp ne ptr %178, null
  br i1 %179, label %180, label %204

180:                                              ; preds = %177
  %181 = load ptr, ptr %4, align 8, !tbaa !3
  %182 = load ptr, ptr %5, align 8, !tbaa !46
  %183 = getelementptr inbounds nuw %struct.H5HG_t, ptr %182, i32 0, i32 0
  %184 = load i64, ptr %183, align 8, !tbaa !48
  %185 = load ptr, ptr %7, align 8, !tbaa !12
  %186 = call i32 @H5AC_unprotect(ptr noundef %181, ptr noundef @H5AC_GHEAP, i64 noundef %184, ptr noundef %185, i32 noundef 0)
  %187 = icmp slt i32 %186, 0
  br i1 %187, label %188, label %204

188:                                              ; preds = %180
  br label %189

189:                                              ; preds = %188
  br label %190

190:                                              ; preds = %189
  br label %191

191:                                              ; preds = %190
  %192 = load i64, ptr @H5E_HEAP_g, align 8, !tbaa !8
  %193 = load i64, ptr @H5E_CANTUNPROTECT_g, align 8, !tbaa !8
  %194 = call i32 (ptr, ptr, i32, i64, i64, ptr, ...) @H5E_printf_stack(ptr noundef @.str.3, ptr noundef @__func__.H5HG_get_obj_size, i32 noundef 720, i64 noundef %192, i64 noundef %193, ptr noundef @.str.17)
  br label %195

195:                                              ; preds = %191
  br label %196

196:                                              ; preds = %195
  store i8 1, ptr %10, align 1, !tbaa !14
  %197 = load i8, ptr %10, align 1, !tbaa !14, !range !16, !noundef !17
  %198 = trunc i8 %197 to i1
  %199 = zext i1 %198 to i8
  store i8 %199, ptr %10, align 1, !tbaa !14
  br label %200

200:                                              ; preds = %196
  br label %201

201:                                              ; preds = %200
  store i32 -1, ptr %8, align 4, !tbaa !10
  br label %202

202:                                              ; preds = %201
  br label %203

203:                                              ; preds = %202
  br label %204

204:                                              ; preds = %203, %180, %177
  br label %205

205:                                              ; preds = %204, %33
  %206 = load i64, ptr %9, align 8, !tbaa !8
  call void @H5AC_tag(i64 noundef %206, ptr noundef null)
  %207 = load i32, ptr %8, align 4, !tbaa !10
  call void @llvm.lifetime.end.p0(i64 1, ptr %10) #8
  call void @llvm.lifetime.end.p0(i64 8, ptr %9) #8
  call void @llvm.lifetime.end.p0(i64 4, ptr %8) #8
  call void @llvm.lifetime.end.p0(i64 8, ptr %7) #8
  ret i32 %207
}