; Function Attrs: nounwind uwtable
define range(i32 -1, 1) i32 @H5HG_get_obj_size(ptr noundef %0, ptr noundef readonly captures(none) %1, ptr noundef writeonly captures(none) %2) local_unnamed_addr #0 {
  %4 = alloca i64, align 8
  call void @llvm.lifetime.start.p0(i64 8, ptr nonnull %4) #8
  store i64 -1, ptr %4, align 8, !tbaa !10
  call void @H5AC_tag(i64 noundef 6, ptr noundef nonnull %4) #8
  %5 = load i8, ptr @H5HG_init_g, align 1, !tbaa !3, !range !7, !noundef !8
  %6 = trunc nuw i8 %5 to i1
  %7 = load i8, ptr @H5_libterm_g, align 1, !range !7
  %8 = trunc nuw i8 %7 to i1
  %9 = select i1 %6, i1 true, i1 %8
  br i1 %9, label %10, label %.thread, !prof !9

.thread:                                          ; preds = %3
  store i8 1, ptr @H5HG_init_g, align 1, !tbaa !3
  br label %13

10:                                               ; preds = %3
  %11 = xor i1 %8, true
  %12 = select i1 %6, i1 true, i1 %11
  br i1 %12, label %13, label %66, !prof !50

13:                                               ; preds = %.thread, %10
  %14 = getelementptr inbounds nuw i8, ptr %1, i64 8
  %15 = load i64, ptr %14, align 8, !tbaa !49
  %16 = icmp eq i64 %15, 0
  br i1 %16, label %17, label %22

17:                                               ; preds = %13
  %18 = load i64, ptr @H5E_HEAP_g, align 8, !tbaa !10
  %19 = load i64, ptr @H5E_BADVALUE_g, align 8, !tbaa !10
  %20 = load i64, ptr %1, align 8, !tbaa !47
  %21 = call i32 (ptr, ptr, i32, i64, i64, ptr, ...) @H5E_printf_stack(ptr noundef nonnull @.str.3, ptr noundef nonnull @__func__.H5HG_get_obj_size, i32 noundef 701, i64 noundef %18, i64 noundef %19, ptr noundef nonnull @.str.13, i64 noundef %20, i64 noundef 0) #8
  br label %66

22:                                               ; preds = %13
  %23 = load i64, ptr %1, align 8, !tbaa !47
  %24 = call ptr @H5AC_protect(ptr noundef %0, ptr noundef nonnull @H5AC_GHEAP, i64 noundef %23, ptr noundef %0, i32 noundef 128) #8
  %25 = icmp eq ptr %24, null
  br i1 %25, label %26, label %33

26:                                               ; preds = %22
  %27 = load i64, ptr @H5E_HEAP_g, align 8, !tbaa !10
  %28 = load i64, ptr @H5E_CANTPROTECT_g, align 8, !tbaa !10
  %29 = call i32 (ptr, ptr, i32, i64, i64, ptr, ...) @H5E_printf_stack(ptr noundef nonnull @.str.3, ptr noundef nonnull @__func__.H5HG__protect, i32 noundef 239, i64 noundef %27, i64 noundef %28, ptr noundef nonnull @.str.4) #8
  %30 = load i64, ptr @H5E_HEAP_g, align 8, !tbaa !10
  %31 = load i64, ptr @H5E_CANTPROTECT_g, align 8, !tbaa !10
  %32 = call i32 (ptr, ptr, i32, i64, i64, ptr, ...) @H5E_printf_stack(ptr noundef nonnull @.str.3, ptr noundef nonnull @__func__.H5HG_get_obj_size, i32 noundef 705, i64 noundef %30, i64 noundef %31, ptr noundef nonnull @.str.4) #8
  br label %66

33:                                               ; preds = %22
  %34 = getelementptr inbounds nuw i8, ptr %24, i64 248
  store i64 %23, ptr %34, align 8, !tbaa !12
  %35 = load i64, ptr %14, align 8, !tbaa !49
  %36 = getelementptr inbounds nuw i8, ptr %24, i64 280
  %37 = load i64, ptr %36, align 8, !tbaa !31
  %.not = icmp ult i64 %35, %37
  br i1 %.not, label %43, label %38

38:                                               ; preds = %33
  %39 = load i64, ptr @H5E_HEAP_g, align 8, !tbaa !10
  %40 = load i64, ptr @H5E_BADVALUE_g, align 8, !tbaa !10
  %41 = load i64, ptr %1, align 8, !tbaa !47
  %42 = call i32 (ptr, ptr, i32, i64, i64, ptr, ...) @H5E_printf_stack(ptr noundef nonnull @.str.3, ptr noundef nonnull @__func__.H5HG_get_obj_size, i32 noundef 710, i64 noundef %39, i64 noundef %40, ptr noundef nonnull @.str.13, i64 noundef %41, i64 noundef %35) #8
  br label %58

43:                                               ; preds = %33
  %44 = getelementptr inbounds nuw i8, ptr %24, i64 296
  %45 = load ptr, ptr %44, align 8, !tbaa !32
  %46 = getelementptr inbounds nuw %struct.H5HG_obj_t, ptr %45, i64 %35
  %47 = getelementptr inbounds nuw i8, ptr %46, i64 16
  %48 = load ptr, ptr %47, align 8, !tbaa !33
  %49 = icmp eq ptr %48, null
  br i1 %49, label %50, label %55

50:                                               ; preds = %43
  %51 = load i64, ptr @H5E_HEAP_g, align 8, !tbaa !10
  %52 = load i64, ptr @H5E_BADVALUE_g, align 8, !tbaa !10
  %53 = load i64, ptr %1, align 8, !tbaa !47
  %54 = call i32 (ptr, ptr, i32, i64, i64, ptr, ...) @H5E_printf_stack(ptr noundef nonnull @.str.3, ptr noundef nonnull @__func__.H5HG_get_obj_size, i32 noundef 713, i64 noundef %51, i64 noundef %52, ptr noundef nonnull @.str.14, i64 noundef %53, i64 noundef %35) #8
  br label %58

55:                                               ; preds = %43
  %56 = getelementptr inbounds nuw i8, ptr %46, i64 8
  %57 = load i64, ptr %56, align 8, !tbaa !36
  store i64 %57, ptr %2, align 8, !tbaa !10
  br label %58

58:                                               ; preds = %38, %50, %55
  %.1.ph = phi i32 [ 0, %55 ], [ -1, %50 ], [ -1, %38 ]
  %59 = load i64, ptr %1, align 8, !tbaa !47
  %60 = call i32 @H5AC_unprotect(ptr noundef %0, ptr noundef nonnull @H5AC_GHEAP, i64 noundef %59, ptr noundef nonnull %24, i32 noundef 0) #8
  %61 = icmp slt i32 %60, 0
  br i1 %61, label %62, label %66

62:                                               ; preds = %58
  %63 = load i64, ptr @H5E_HEAP_g, align 8, !tbaa !10
  %64 = load i64, ptr @H5E_CANTUNPROTECT_g, align 8, !tbaa !10
  %65 = call i32 (ptr, ptr, i32, i64, i64, ptr, ...) @H5E_printf_stack(ptr noundef nonnull @.str.3, ptr noundef nonnull @__func__.H5HG_get_obj_size, i32 noundef 720, i64 noundef %63, i64 noundef %64, ptr noundef nonnull @.str.17) #8
  br label %66

66:                                               ; preds = %17, %26, %58, %62, %10
  %.0 = phi i32 [ -1, %62 ], [ %.1.ph, %58 ], [ 0, %10 ], [ -1, %17 ], [ -1, %26 ]
  %67 = load i64, ptr %4, align 8, !tbaa !10
  call void @H5AC_tag(i64 noundef %67, ptr noundef null) #8
  call void @llvm.lifetime.end.p0(i64 8, ptr nonnull %4) #8
  ret i32 %.0
}